; Function Attrs: mustprogress uwtable
define hidden noundef zeroext i1 @_ZNK4cvc58internal6theory7strings9InferInfo9isTrivialEv(ptr noundef nonnull align 8 dereferenceable(200) %0) local_unnamed_addr #3 align 2 {
  %2 = getelementptr inbounds nuw i8, ptr %0, i64 32
  %3 = tail call noundef zeroext i1 @_ZNK4cvc58internal12NodeTemplateILb1EE7isConstEv(ptr noundef nonnull align 8 dereferenceable(8) %2)
  br i1 %3, label %4, label %9

4:                                                ; preds = %1
  %5 = load ptr, ptr %2, align 8, !tbaa !40
  %6 = tail call noundef nonnull align 1 dereferenceable(1) ptr @_ZNK4cvc58internal4expr9NodeValue8getConstIbEERKT_v(ptr noundef nonnull align 8 dereferenceable(24) %5)
  %7 = load i8, ptr %6, align 1, !tbaa !54, !range !55, !noundef !56
  %8 = trunc nuw i8 %7 to i1
  br label %9

9:                                                ; preds = %4, %1
  %10 = phi i1 [ false, %1 ], [ %8, %4 ]
  ret i1 %10
}